; Function Attrs: nounwind sspstrong uwtable
define hidden i64 @rb_hash_resurrect(i64 noundef %0) local_unnamed_addr #0 {
  %2 = load i64, ptr @rb_cHash, align 8, !tbaa !7
  %3 = inttoptr i64 %0 to ptr
  %4 = getelementptr inbounds nuw i8, ptr %3, i64 16
  %5 = load i64, ptr %4, align 8, !tbaa !56
  %6 = load i64, ptr %3, align 8, !tbaa !11
  %.fr7.i = freeze i64 %6
  %7 = and i64 %.fr7.i, 32768
  %.not.i.i.i.i = icmp eq i64 %7, 0
  br i1 %.not.i.i.i.i, label %8, label %11

8:                                                ; preds = %1
  %9 = lshr i64 %.fr7.i, 16
  %10 = and i64 %9, 15
  br label %RHASH_EMPTY_P.exit.i

11:                                               ; preds = %1
  %12 = add i64 %0, 24
  %13 = inttoptr i64 %12 to ptr
  %14 = getelementptr inbounds nuw i8, ptr %13, i64 16
  %15 = load i64, ptr %14, align 8, !tbaa !49
  br label %RHASH_EMPTY_P.exit.i

RHASH_EMPTY_P.exit.i:                             ; preds = %11, %8
  %.0.i.i.i = phi i64 [ %10, %8 ], [ %15, %11 ]
  %16 = icmp eq i64 %.0.i.i.i, 0
  %17 = or i1 %.not.i.i.i.i, %16
  %18 = select i1 %17, i64 160, i64 80
  %19 = tail call align 8 ptr @llvm.threadlocal.address.p0(ptr align 8 @ruby_current_ec)
  %20 = load ptr, ptr %19, align 8, !tbaa !24
  %21 = tail call i64 @rb_wb_protected_newobj_of(ptr noundef %20, i64 noundef %2, i64 noundef 8, i64 noundef %18) #28
  %22 = inttoptr i64 %21 to ptr
  %23 = getelementptr inbounds nuw i8, ptr %22, i64 16
  store i64 %5, ptr %23, align 8, !tbaa !7
  %24 = icmp eq i64 %5, 0
  %25 = and i64 %5, 7
  %26 = icmp ne i64 %25, 0
  %27 = or i1 %24, %26
  br i1 %27, label %hash_dup.exit, label %28

28:                                               ; preds = %RHASH_EMPTY_P.exit.i
  tail call void @rb_gc_writebarrier(i64 noundef %21, i64 noundef %5) #28
  br label %hash_dup.exit

hash_dup.exit:                                    ; preds = %RHASH_EMPTY_P.exit.i, %28
  %29 = tail call fastcc i64 @hash_copy(i64 noundef %21, i64 noundef %0)
  ret i64 %21
}